target datalayout = "e-m:e-p270:32:32-p271:32:32-p272:64:64-i64:64-i128:128-f80:128-n8:16:32:64-S128"
target triple = "x86_64-pc-linux-gnu"

%struct._zend_phpdbg_globals = type { [11 x %struct._zend_array], %struct._zend_array, %struct._zend_array, ptr, ptr, %struct.phpdbg_frame_t, i32, ptr, %struct.phpdbg_lexer_data, ptr, %struct.sigaction, i32, i64, %struct.phpdbg_btree, %struct.phpdbg_btree, %struct._zend_array, %struct._zend_array, %struct._zend_array, %struct._zend_array, ptr, ptr, i8, ptr, ptr, ptr, i64, ptr, %struct._zval_struct, i32, i32, i8, i8, ptr, ptr, ptr, %struct._zend_array, ptr, ptr, ptr, [3 x %struct.anon.10], ptr, %struct.anon.11, i64, [2 x ptr], [3 x ptr], ptr, i8, ptr, ptr, [500 x i8], i32, %struct.phpdbg_signal_safe_mem, ptr, i64, ptr, i64 }
%struct.phpdbg_frame_t = type { i32, ptr, ptr }
%struct.phpdbg_lexer_data = type { i32, ptr, ptr, ptr, ptr, i32 }
%struct.sigaction = type { %union.anon.4, %struct.__sigset_t, i32, ptr }
%union.anon.4 = type { ptr }
%struct.__sigset_t = type { [16 x i64] }
%struct.phpdbg_btree = type { i64, i64, i8, ptr }
%struct._zval_struct = type { %union._zend_value, %union.anon.6, %union.anon.9 }
%union._zend_value = type { i64 }
%union.anon.6 = type { i32 }
%union.anon.9 = type { i32 }
%struct._zend_array = type { %struct._zend_refcounted_h, %union.anon.1, i32, %union.anon.3, i32, i32, i32, i32, i64, ptr }
%struct._zend_refcounted_h = type { i32, %union.anon }
%union.anon = type { i32 }
%union.anon.1 = type { i32 }
%union.anon.3 = type { ptr }
%struct.anon.10 = type { i32 }
%struct.anon.11 = type { i8, i32, i32, ptr, i32 }
%struct.phpdbg_signal_safe_mem = type { ptr, i8, ptr, ptr }
%struct._phpdbg_command_t = type { ptr, i64, ptr, i64, i8, ptr, ptr, ptr, ptr, i8 }
%struct._phpdbg_param = type { i32, i64, i64, %struct.anon, %struct.anon.0, ptr, i64, ptr, ptr }
%struct.anon = type { ptr, i64 }
%struct.anon.0 = type { ptr, ptr }

@phpdbg_globals = external global %struct._zend_phpdbg_globals, align 8
@.str.42 = private unnamed_addr constant [38 x i8] c"The passed argument was not a stack !\00", align 1
@.str.43 = private unnamed_addr constant [29 x i8] c"The stack contains nothing !\00", align 1
@.str.47 = private unnamed_addr constant [48 x i8] c"run command is disallowed during hard interrupt\00", align 1
@.str.48 = private unnamed_addr constant [47 x i8] c"sh command is disallowed during hard interrupt\00", align 1
@phpdbg_prompt_commands = external constant [0 x %struct._phpdbg_command_t], align 8
@.str.49 = private unnamed_addr constant [47 x i8] c"%s command is disallowed during hard interrupt\00", align 1
@.str.50 = private unnamed_addr constant [37 x i8] c"The first parameter makes no sense !\00", align 1

; Function Attrs: nounwind uwtable
define internal i32 @phpdbg_internal_stack_execute(ptr noundef %0, i1 noundef zeroext %1) #0 {
  %3 = alloca i32, align 4
  %4 = alloca ptr, align 8
  %5 = alloca i8, align 1
  %6 = alloca ptr, align 8
  %7 = alloca ptr, align 8
  store ptr %0, ptr %4, align 8
  %8 = zext i1 %1 to i8
  store i8 %8, ptr %5, align 1
  store ptr null, ptr %6, align 8
  %9 = load ptr, ptr %4, align 8
  %10 = getelementptr inbounds %struct._phpdbg_param, ptr %9, i32 0, i32 7
  %11 = load ptr, ptr %10, align 8
  store ptr %11, ptr %7, align 8
  %12 = load ptr, ptr %7, align 8
  %13 = getelementptr inbounds %struct._phpdbg_param, ptr %12, i32 0, i32 0
  %14 = load i32, ptr %13, align 8
  switch i32 %14, label %69 [
    i32 10, label %15
    i32 15, label %18
    i32 11, label %27
    i32 5, label %36
  ]

15:                                               ; preds = %2
  call void @phpdbg_activate_err_buf(i1 noundef zeroext false)
  call void @phpdbg_free_err_buf()
  %16 = load ptr, ptr %7, align 8
  %17 = call i32 @phpdbg_do_ev(ptr noundef %16)
  store i32 %17, ptr %3, align 4
  br label %72

18:                                               ; preds = %2
  %19 = load i8, ptr %5, align 1
  %20 = trunc i8 %19 to i1
  br i1 %20, label %24, label %21

21:                                               ; preds = %18
  %22 = load i32, ptr getelementptr inbounds (%struct._zend_phpdbg_globals, ptr @phpdbg_globals, i32 0, i32 39, i64 1), align 4
  %23 = call i32 (i32, i32, ptr, ...) @phpdbg_print(i32 noundef 1, i32 noundef %22, ptr noundef @.str.47)
  br label %24

24:                                               ; preds = %21, %18
  call void @phpdbg_activate_err_buf(i1 noundef zeroext false)
  call void @phpdbg_free_err_buf()
  %25 = load ptr, ptr %7, align 8
  %26 = call i32 @phpdbg_do_run(ptr noundef %25)
  store i32 %26, ptr %3, align 4
  br label %72

27:                                               ; preds = %2
  %28 = load i8, ptr %5, align 1
  %29 = trunc i8 %28 to i1
  br i1 %29, label %33, label %30

30:                                               ; preds = %27
  %31 = load i32, ptr getelementptr inbounds (%struct._zend_phpdbg_globals, ptr @phpdbg_globals, i32 0, i32 39, i64 1), align 4
  %32 = call i32 (i32, i32, ptr, ...) @phpdbg_print(i32 noundef 1, i32 noundef %31, ptr noundef @.str.48)
  store i32 -1, ptr %3, align 4
  br label %72

33:                                               ; preds = %27
  call void @phpdbg_activate_err_buf(i1 noundef zeroext false)
  call void @phpdbg_free_err_buf()
  %34 = load ptr, ptr %7, align 8
  %35 = call i32 @phpdbg_do_sh(ptr noundef %34)
  store i32 %35, ptr %3, align 4
  br label %72

36:                                               ; preds = %2
  %37 = call ptr @phpdbg_stack_resolve(ptr noundef @phpdbg_prompt_commands, ptr noundef null, ptr noundef %7)
  store ptr %37, ptr %6, align 8
  %38 = load ptr, ptr %6, align 8
  %39 = icmp ne ptr %38, null
  br i1 %39, label %40, label %68

40:                                               ; preds = %36
  %41 = load i8, ptr %5, align 1
  %42 = trunc i8 %41 to i1
  br i1 %42, label %57, label %43

43:                                               ; preds = %40
  %44 = load ptr, ptr %6, align 8
  %45 = getelementptr inbounds %struct._phpdbg_command_t, ptr %44, i32 0, i32 9
  %46 = load i8, ptr %45, align 8
  %47 = trunc i8 %46 to i1
  %48 = zext i1 %47 to i32
  %49 = and i32 %48, 1
  %50 = icmp ne i32 %49, 0
  br i1 %50, label %57, label %51

51:                                               ; preds = %43
  %52 = load i32, ptr getelementptr inbounds (%struct._zend_phpdbg_globals, ptr @phpdbg_globals, i32 0, i32 39, i64 1), align 4
  %53 = load ptr, ptr %6, align 8
  %54 = getelementptr inbounds %struct._phpdbg_command_t, ptr %53, i32 0, i32 0
  %55 = load ptr, ptr %54, align 8
  %56 = call i32 (i32, i32, ptr, ...) @phpdbg_print(i32 noundef 1, i32 noundef %52, ptr noundef @.str.49, ptr noundef %55)
  store i32 -1, ptr %3, align 4
  br label %72

57:                                               ; preds = %43, %40
  %58 = load ptr, ptr %6, align 8
  %59 = call i32 @phpdbg_stack_verify(ptr noundef %58, ptr noundef %7)
  %60 = icmp eq i32 %59, 0
  br i1 %60, label %61, label %67

61:                                               ; preds = %57
  call void @phpdbg_activate_err_buf(i1 noundef zeroext false)
  call void @phpdbg_free_err_buf()
  %62 = load ptr, ptr %6, align 8
  %63 = getelementptr inbounds %struct._phpdbg_command_t, ptr %62, i32 0, i32 5
  %64 = load ptr, ptr %63, align 8
  %65 = load ptr, ptr %7, align 8
  %66 = call i32 %64(ptr noundef %65)
  store i32 %66, ptr %3, align 4
  br label %72

67:                                               ; preds = %57
  br label %68

68:                                               ; preds = %67, %36
  store i32 -1, ptr %3, align 4
  br label %72

69:                                               ; preds = %2
  %70 = load i32, ptr getelementptr inbounds (%struct._zend_phpdbg_globals, ptr @phpdbg_globals, i32 0, i32 39, i64 1), align 4
  %71 = call i32 (i32, i32, ptr, ...) @phpdbg_print(i32 noundef 1, i32 noundef %70, ptr noundef @.str.50)
  store i32 -1, ptr %3, align 4
  br label %72

72:                                               ; preds = %69, %68, %61, %51, %33, %30, %24, %15
  %73 = load i32, ptr %3, align 4
  ret i32 %73
}

; Function Attrs: nounwind uwtable
define i32 @phpdbg_stack_execute(ptr noundef %0, i1 noundef zeroext %1) #0 {
  %3 = alloca i32, align 4
  %4 = alloca ptr, align 8
  %5 = alloca i8, align 1
  %6 = alloca ptr, align 8
  %7 = alloca i32, align 4
  store ptr %0, ptr %4, align 8
  %8 = zext i1 %1 to i8
  store i8 %8, ptr %5, align 1
  %9 = load ptr, ptr %4, align 8
  store ptr %9, ptr %6, align 8
  %10 = load ptr, ptr %4, align 8
  %11 = getelementptr inbounds %struct._phpdbg_param, ptr %10, i32 0, i32 0
  %12 = load i32, ptr %11, align 8
  %13 = icmp ne i32 %12, 9
  br i1 %13, label %14, label %17

14:                                               ; preds = %2
  %15 = load i32, ptr getelementptr inbounds (%struct._zend_phpdbg_globals, ptr @phpdbg_globals, i32 0, i32 39, i64 1), align 4
  %16 = call i32 (i32, i32, ptr, ...) @phpdbg_print(i32 noundef 1, i32 noundef %15, ptr noundef @.str.42)
  store i32 -1, ptr %3, align 4
  br label %47

17:                                               ; preds = %2
  %18 = load ptr, ptr %4, align 8
  %19 = getelementptr inbounds %struct._phpdbg_param, ptr %18, i32 0, i32 6
  %20 = load i64, ptr %19, align 8
  %21 = icmp ne i64 %20, 0
  br i1 %21, label %25, label %22

22:                                               ; preds = %17
  %23 = load i32, ptr getelementptr inbounds (%struct._zend_phpdbg_globals, ptr @phpdbg_globals, i32 0, i32 39, i64 1), align 4
  %24 = call i32 (i32, i32, ptr, ...) @phpdbg_print(i32 noundef 1, i32 noundef %23, ptr noundef @.str.43)
  store i32 -1, ptr %3, align 4
  br label %47

25:                                               ; preds = %17
  br label %26

26:                                               ; preds = %41, %25
  %27 = load ptr, ptr %6, align 8
  %28 = getelementptr inbounds %struct._phpdbg_param, ptr %27, i32 0, i32 0
  %29 = load i32, ptr %28, align 8
  %30 = icmp eq i32 %29, 9
  br i1 %30, label %31, label %40

31:                                               ; preds = %26
  %32 = load ptr, ptr %6, align 8
  %33 = load i8, ptr %5, align 1
  %34 = trunc i8 %33 to i1
  %35 = call i32 @phpdbg_internal_stack_execute(ptr noundef %32, i1 noundef zeroext %34)
  store i32 %35, ptr %7, align 4
  %36 = icmp ne i32 %35, 0
  br i1 %36, label %37, label %39

37:                                               ; preds = %31
  %38 = load i32, ptr %7, align 4
  store i32 %38, ptr %3, align 4
  br label %47

39:                                               ; preds = %31
  br label %40

40:                                               ; preds = %39, %26
  br label %41

41:                                               ; preds = %40
  %42 = load ptr, ptr %6, align 8
  %43 = getelementptr inbounds %struct._phpdbg_param, ptr %42, i32 0, i32 7
  %44 = load ptr, ptr %43, align 8
  store ptr %44, ptr %6, align 8
  %45 = icmp ne ptr %44, null
  br i1 %45, label %26, label %46

46:                                               ; preds = %41
  store i32 0, ptr %3, align 4
  br label %47

47:                                               ; preds = %46, %37, %22, %14
  %48 = load i32, ptr %3, align 4
  ret i32 %48
}