; Function Attrs: nounwind uwtable
define i32 @phpdbg_stack_execute(ptr nocapture noundef readonly %0, i1 noundef zeroext %1) local_unnamed_addr #1 {
  %3 = alloca ptr, align 8
  %4 = load i32, ptr %0, align 8
  %.not = icmp eq i32 %4, 9
  br i1 %.not, label %8, label %5

5:                                                ; preds = %2
  %6 = load i32, ptr getelementptr inbounds (%struct._zend_phpdbg_globals, ptr @phpdbg_globals, i64 0, i32 39, i64 1), align 4
  %7 = tail call i32 (i32, i32, ptr, ...) @phpdbg_print(i32 noundef 1, i32 noundef %6, ptr noundef nonnull @.str.42) #22
  br label %.loopexit

8:                                                ; preds = %2
  %9 = getelementptr inbounds i8, ptr %0, i64 64
  %10 = load i64, ptr %9, align 8
  %.not11 = icmp eq i64 %10, 0
  br i1 %.not11, label %11, label %.preheader

11:                                               ; preds = %8
  %12 = load i32, ptr getelementptr inbounds (%struct._zend_phpdbg_globals, ptr @phpdbg_globals, i64 0, i32 39, i64 1), align 4
  %13 = tail call i32 (i32, i32, ptr, ...) @phpdbg_print(i32 noundef 1, i32 noundef %12, ptr noundef nonnull @.str.43) #22
  br label %.loopexit

.preheader:                                       ; preds = %8, %55
  %.08 = phi ptr [ %57, %55 ], [ %0, %8 ]
  %14 = load i32, ptr %.08, align 8
  %15 = icmp eq i32 %14, 9
  br i1 %15, label %16, label %55

16:                                               ; preds = %.preheader
  %17 = getelementptr i8, ptr %.08, i64 72
  %.08.val = load ptr, ptr %17, align 8
  call void @llvm.lifetime.start.p0(i64 8, ptr nonnull %3)
  store ptr %.08.val, ptr %3, align 8
  %18 = load i32, ptr %.08.val, align 8
  switch i32 %18, label %52 [
    i32 10, label %19
    i32 15, label %21
    i32 11, label %27
    i32 5, label %33
  ]

19:                                               ; preds = %16
  call void @phpdbg_activate_err_buf(i1 noundef zeroext false) #22
  call void @phpdbg_free_err_buf() #22
  %20 = call i32 @phpdbg_do_ev(ptr noundef nonnull %.08.val) #22
  br label %phpdbg_internal_stack_execute.exit

21:                                               ; preds = %16
  br i1 %1, label %25, label %22

22:                                               ; preds = %21
  %23 = load i32, ptr getelementptr inbounds (%struct._zend_phpdbg_globals, ptr @phpdbg_globals, i64 0, i32 39, i64 1), align 4
  %24 = call i32 (i32, i32, ptr, ...) @phpdbg_print(i32 noundef 1, i32 noundef %23, ptr noundef nonnull @.str.47) #22
  br label %25

25:                                               ; preds = %22, %21
  call void @phpdbg_activate_err_buf(i1 noundef zeroext false) #22
  call void @phpdbg_free_err_buf() #22
  %26 = call i32 @phpdbg_do_run(ptr noundef nonnull %.08.val) #22
  br label %phpdbg_internal_stack_execute.exit

27:                                               ; preds = %16
  br i1 %1, label %31, label %28

28:                                               ; preds = %27
  %29 = load i32, ptr getelementptr inbounds (%struct._zend_phpdbg_globals, ptr @phpdbg_globals, i64 0, i32 39, i64 1), align 4
  %30 = call i32 (i32, i32, ptr, ...) @phpdbg_print(i32 noundef 1, i32 noundef %29, ptr noundef nonnull @.str.48) #22
  br label %phpdbg_internal_stack_execute.exit.thread

31:                                               ; preds = %27
  call void @phpdbg_activate_err_buf(i1 noundef zeroext false) #22
  call void @phpdbg_free_err_buf() #22
  %32 = call i32 @phpdbg_do_sh(ptr noundef nonnull %.08.val) #22
  br label %phpdbg_internal_stack_execute.exit

33:                                               ; preds = %16
  %34 = call ptr @phpdbg_stack_resolve(ptr noundef nonnull @phpdbg_prompt_commands, ptr noundef null, ptr noundef nonnull %3)
  %.not.i = icmp eq ptr %34, null
  br i1 %.not.i, label %phpdbg_internal_stack_execute.exit.thread, label %35

35:                                               ; preds = %33
  br i1 %1, label %44, label %36

36:                                               ; preds = %35
  %37 = getelementptr inbounds i8, ptr %34, i64 72
  %38 = load i8, ptr %37, align 8
  %39 = and i8 %38, 1
  %.not10.i = icmp eq i8 %39, 0
  br i1 %.not10.i, label %40, label %44

40:                                               ; preds = %36
  %41 = load i32, ptr getelementptr inbounds (%struct._zend_phpdbg_globals, ptr @phpdbg_globals, i64 0, i32 39, i64 1), align 4
  %42 = load ptr, ptr %34, align 8
  %43 = call i32 (i32, i32, ptr, ...) @phpdbg_print(i32 noundef 1, i32 noundef %41, ptr noundef nonnull @.str.49, ptr noundef %42) #22
  br label %phpdbg_internal_stack_execute.exit.thread

44:                                               ; preds = %36, %35
  %45 = call i32 @phpdbg_stack_verify(ptr noundef nonnull %34, ptr noundef nonnull %3), !range !4
  %46 = icmp eq i32 %45, 0
  br i1 %46, label %47, label %phpdbg_internal_stack_execute.exit.thread

47:                                               ; preds = %44
  call void @phpdbg_activate_err_buf(i1 noundef zeroext false) #22
  call void @phpdbg_free_err_buf() #22
  %48 = getelementptr inbounds i8, ptr %34, i64 40
  %49 = load ptr, ptr %48, align 8
  %50 = load ptr, ptr %3, align 8
  %51 = call i32 %49(ptr noundef %50) #22
  br label %phpdbg_internal_stack_execute.exit

52:                                               ; preds = %16
  %53 = load i32, ptr getelementptr inbounds (%struct._zend_phpdbg_globals, ptr @phpdbg_globals, i64 0, i32 39, i64 1), align 4
  %54 = call i32 (i32, i32, ptr, ...) @phpdbg_print(i32 noundef 1, i32 noundef %53, ptr noundef nonnull @.str.50) #22
  br label %phpdbg_internal_stack_execute.exit.thread

phpdbg_internal_stack_execute.exit.thread:        ; preds = %44, %33, %52, %40, %28
  call void @llvm.lifetime.end.p0(i64 8, ptr nonnull %3)
  br label %.loopexit

phpdbg_internal_stack_execute.exit:               ; preds = %19, %25, %31, %47
  %.0.i = phi i32 [ %51, %47 ], [ %32, %31 ], [ %26, %25 ], [ %20, %19 ]
  call void @llvm.lifetime.end.p0(i64 8, ptr nonnull %3)
  %.not12 = icmp eq i32 %.0.i, 0
  br i1 %.not12, label %55, label %.loopexit

55:                                               ; preds = %.preheader, %phpdbg_internal_stack_execute.exit
  %56 = getelementptr inbounds i8, ptr %.08, i64 72
  %57 = load ptr, ptr %56, align 8
  %.not13 = icmp eq ptr %57, null
  br i1 %.not13, label %.loopexit, label %.preheader

.loopexit:                                        ; preds = %55, %phpdbg_internal_stack_execute.exit, %phpdbg_internal_stack_execute.exit.thread, %11, %5
  %.0 = phi i32 [ -1, %5 ], [ -1, %11 ], [ -1, %phpdbg_internal_stack_execute.exit.thread ], [ 0, %55 ], [ %.0.i, %phpdbg_internal_stack_execute.exit ]
  ret i32 %.0
}